target datalayout = "e-m:e-p270:32:32-p271:32:32-p272:64:64-i64:64-i128:128-f80:128-n8:16:32:64-S128"
target triple = "x86_64-pc-linux-gnu"

%struct.ARKodeSPRKTableMem = type { i32, i32, ptr, ptr }
%struct.ARKodeButcherTableMem = type { i32, i32, i32, ptr, ptr, ptr, ptr }

; Function Attrs: nounwind uwtable
define i32 @ARKodeSPRKTable_ToButcher(ptr noundef %0, ptr noundef %1, ptr noundef %2) #0 {
  %4 = alloca i32, align 4
  %5 = alloca ptr, align 8
  %6 = alloca ptr, align 8
  %7 = alloca ptr, align 8
  %8 = alloca i32, align 4
  %9 = alloca i32, align 4
  %10 = alloca ptr, align 8
  %11 = alloca ptr, align 8
  %12 = alloca i32, align 4
  store ptr %0, ptr %5, align 8, !tbaa !10
  store ptr %1, ptr %6, align 8, !tbaa !29
  store ptr %2, ptr %7, align 8, !tbaa !29
  call void @llvm.lifetime.start.p0(i64 4, ptr %8) #8
  store i32 0, ptr %8, align 4, !tbaa !3
  call void @llvm.lifetime.start.p0(i64 4, ptr %9) #8
  store i32 0, ptr %9, align 4, !tbaa !3
  call void @llvm.lifetime.start.p0(i64 8, ptr %10) #8
  store ptr null, ptr %10, align 8, !tbaa !27
  call void @llvm.lifetime.start.p0(i64 8, ptr %11) #8
  store ptr null, ptr %11, align 8, !tbaa !27
  %13 = load ptr, ptr %5, align 8, !tbaa !10
  %14 = getelementptr inbounds nuw %struct.ARKodeSPRKTableMem, ptr %13, i32 0, i32 1
  %15 = load i32, ptr %14, align 4, !tbaa !12
  %16 = call ptr @ARKodeButcherTable_Alloc(i32 noundef %15, i32 noundef 0)
  store ptr %16, ptr %10, align 8, !tbaa !27
  %17 = load ptr, ptr %10, align 8, !tbaa !27
  %18 = icmp ne ptr %17, null
  br i1 %18, label %20, label %19

19:                                               ; preds = %3
  store i32 -20, ptr %4, align 4
  store i32 1, ptr %12, align 4
  br label %222

20:                                               ; preds = %3
  %21 = load ptr, ptr %5, align 8, !tbaa !10
  %22 = getelementptr inbounds nuw %struct.ARKodeSPRKTableMem, ptr %21, i32 0, i32 1
  %23 = load i32, ptr %22, align 4, !tbaa !12
  %24 = call ptr @ARKodeButcherTable_Alloc(i32 noundef %23, i32 noundef 0)
  store ptr %24, ptr %11, align 8, !tbaa !27
  %25 = load ptr, ptr %11, align 8, !tbaa !27
  %26 = icmp ne ptr %25, null
  br i1 %26, label %33, label %27

27:                                               ; preds = %20
  %28 = load ptr, ptr %10, align 8, !tbaa !27
  %29 = icmp ne ptr %28, null
  br i1 %29, label %30, label %32

30:                                               ; preds = %27
  %31 = load ptr, ptr %10, align 8, !tbaa !27
  call void @ARKodeButcherTable_Free(ptr noundef %31)
  br label %32

32:                                               ; preds = %30, %27
  store i32 -20, ptr %4, align 4
  store i32 1, ptr %12, align 4
  br label %222

33:                                               ; preds = %20
  store i32 0, ptr %8, align 4, !tbaa !3
  br label %34

34:                                               ; preds = %214, %33
  %35 = load i32, ptr %8, align 4, !tbaa !3
  %36 = load ptr, ptr %5, align 8, !tbaa !10
  %37 = getelementptr inbounds nuw %struct.ARKodeSPRKTableMem, ptr %36, i32 0, i32 1
  %38 = load i32, ptr %37, align 4, !tbaa !12
  %39 = icmp slt i32 %35, %38
  br i1 %39, label %40, label %217

40:                                               ; preds = %34
  %41 = load ptr, ptr %5, align 8, !tbaa !10
  %42 = getelementptr inbounds nuw %struct.ARKodeSPRKTableMem, ptr %41, i32 0, i32 3
  %43 = load ptr, ptr %42, align 8, !tbaa !18
  %44 = load i32, ptr %8, align 4, !tbaa !3
  %45 = sext i32 %44 to i64
  %46 = getelementptr inbounds double, ptr %43, i64 %45
  %47 = load double, ptr %46, align 8, !tbaa !15
  %48 = load ptr, ptr %11, align 8, !tbaa !27
  %49 = getelementptr inbounds nuw %struct.ARKodeButcherTableMem, ptr %48, i32 0, i32 5
  %50 = load ptr, ptr %49, align 8, !tbaa !31
  %51 = load i32, ptr %8, align 4, !tbaa !3
  %52 = sext i32 %51 to i64
  %53 = getelementptr inbounds double, ptr %50, i64 %52
  store double %47, ptr %53, align 8, !tbaa !15
  store i32 0, ptr %9, align 4, !tbaa !3
  br label %54

54:                                               ; preds = %76, %40
  %55 = load i32, ptr %9, align 4, !tbaa !3
  %56 = load i32, ptr %8, align 4, !tbaa !3
  %57 = icmp sle i32 %55, %56
  br i1 %57, label %58, label %79

58:                                               ; preds = %54
  %59 = load ptr, ptr %5, align 8, !tbaa !10
  %60 = getelementptr inbounds nuw %struct.ARKodeSPRKTableMem, ptr %59, i32 0, i32 3
  %61 = load ptr, ptr %60, align 8, !tbaa !18
  %62 = load i32, ptr %9, align 4, !tbaa !3
  %63 = sext i32 %62 to i64
  %64 = getelementptr inbounds double, ptr %61, i64 %63
  %65 = load double, ptr %64, align 8, !tbaa !15
  %66 = load ptr, ptr %11, align 8, !tbaa !27
  %67 = getelementptr inbounds nuw %struct.ARKodeButcherTableMem, ptr %66, i32 0, i32 3
  %68 = load ptr, ptr %67, align 8, !tbaa !34
  %69 = load i32, ptr %8, align 4, !tbaa !3
  %70 = sext i32 %69 to i64
  %71 = getelementptr inbounds ptr, ptr %68, i64 %70
  %72 = load ptr, ptr %71, align 8, !tbaa !7
  %73 = load i32, ptr %9, align 4, !tbaa !3
  %74 = sext i32 %73 to i64
  %75 = getelementptr inbounds double, ptr %72, i64 %74
  store double %65, ptr %75, align 8, !tbaa !15
  br label %76

76:                                               ; preds = %58
  %77 = load i32, ptr %9, align 4, !tbaa !3
  %78 = add nsw i32 %77, 1
  store i32 %78, ptr %9, align 4, !tbaa !3
  br label %54

79:                                               ; preds = %54
  store i32 0, ptr %9, align 4, !tbaa !3
  br label %80

80:                                               ; preds = %111, %79
  %81 = load i32, ptr %9, align 4, !tbaa !3
  %82 = load ptr, ptr %5, align 8, !tbaa !10
  %83 = getelementptr inbounds nuw %struct.ARKodeSPRKTableMem, ptr %82, i32 0, i32 1
  %84 = load i32, ptr %83, align 4, !tbaa !12
  %85 = icmp slt i32 %81, %84
  br i1 %85, label %86, label %114

86:                                               ; preds = %80
  store i32 0, ptr %8, align 4, !tbaa !3
  br label %87

87:                                               ; preds = %107, %86
  %88 = load i32, ptr %8, align 4, !tbaa !3
  %89 = load i32, ptr %9, align 4, !tbaa !3
  %90 = icmp sle i32 %88, %89
  br i1 %90, label %91, label %110

91:                                               ; preds = %87
  %92 = load ptr, ptr %5, align 8, !tbaa !10
  %93 = getelementptr inbounds nuw %struct.ARKodeSPRKTableMem, ptr %92, i32 0, i32 3
  %94 = load ptr, ptr %93, align 8, !tbaa !18
  %95 = load i32, ptr %8, align 4, !tbaa !3
  %96 = sext i32 %95 to i64
  %97 = getelementptr inbounds double, ptr %94, i64 %96
  %98 = load double, ptr %97, align 8, !tbaa !15
  %99 = load ptr, ptr %11, align 8, !tbaa !27
  %100 = getelementptr inbounds nuw %struct.ARKodeButcherTableMem, ptr %99, i32 0, i32 4
  %101 = load ptr, ptr %100, align 8, !tbaa !35
  %102 = load i32, ptr %9, align 4, !tbaa !3
  %103 = sext i32 %102 to i64
  %104 = getelementptr inbounds double, ptr %101, i64 %103
  %105 = load double, ptr %104, align 8, !tbaa !15
  %106 = fadd double %105, %98
  store double %106, ptr %104, align 8, !tbaa !15
  br label %107

107:                                              ; preds = %91
  %108 = load i32, ptr %8, align 4, !tbaa !3
  %109 = add nsw i32 %108, 1
  store i32 %109, ptr %8, align 4, !tbaa !3
  br label %87

110:                                              ; preds = %87
  br label %111

111:                                              ; preds = %110
  %112 = load i32, ptr %9, align 4, !tbaa !3
  %113 = add nsw i32 %112, 1
  store i32 %113, ptr %9, align 4, !tbaa !3
  br label %80

114:                                              ; preds = %80
  store i32 0, ptr %8, align 4, !tbaa !3
  br label %115

115:                                              ; preds = %161, %114
  %116 = load i32, ptr %8, align 4, !tbaa !3
  %117 = load ptr, ptr %5, align 8, !tbaa !10
  %118 = getelementptr inbounds nuw %struct.ARKodeSPRKTableMem, ptr %117, i32 0, i32 1
  %119 = load i32, ptr %118, align 4, !tbaa !12
  %120 = icmp slt i32 %116, %119
  br i1 %120, label %121, label %164

121:                                              ; preds = %115
  %122 = load ptr, ptr %5, align 8, !tbaa !10
  %123 = getelementptr inbounds nuw %struct.ARKodeSPRKTableMem, ptr %122, i32 0, i32 2
  %124 = load ptr, ptr %123, align 8, !tbaa !17
  %125 = load i32, ptr %8, align 4, !tbaa !3
  %126 = sext i32 %125 to i64
  %127 = getelementptr inbounds double, ptr %124, i64 %126
  %128 = load double, ptr %127, align 8, !tbaa !15
  %129 = load ptr, ptr %10, align 8, !tbaa !27
  %130 = getelementptr inbounds nuw %struct.ARKodeButcherTableMem, ptr %129, i32 0, i32 5
  %131 = load ptr, ptr %130, align 8, !tbaa !31
  %132 = load i32, ptr %8, align 4, !tbaa !3
  %133 = sext i32 %132 to i64
  %134 = getelementptr inbounds double, ptr %131, i64 %133
  store double %128, ptr %134, align 8, !tbaa !15
  store i32 0, ptr %9, align 4, !tbaa !3
  br label %135

135:                                              ; preds = %157, %121
  %136 = load i32, ptr %9, align 4, !tbaa !3
  %137 = load i32, ptr %8, align 4, !tbaa !3
  %138 = icmp slt i32 %136, %137
  br i1 %138, label %139, label %160

139:                                              ; preds = %135
  %140 = load ptr, ptr %5, align 8, !tbaa !10
  %141 = getelementptr inbounds nuw %struct.ARKodeSPRKTableMem, ptr %140, i32 0, i32 2
  %142 = load ptr, ptr %141, align 8, !tbaa !17
  %143 = load i32, ptr %9, align 4, !tbaa !3
  %144 = sext i32 %143 to i64
  %145 = getelementptr inbounds double, ptr %142, i64 %144
  %146 = load double, ptr %145, align 8, !tbaa !15
  %147 = load ptr, ptr %10, align 8, !tbaa !27
  %148 = getelementptr inbounds nuw %struct.ARKodeButcherTableMem, ptr %147, i32 0, i32 3
  %149 = load ptr, ptr %148, align 8, !tbaa !34
  %150 = load i32, ptr %8, align 4, !tbaa !3
  %151 = sext i32 %150 to i64
  %152 = getelementptr inbounds ptr, ptr %149, i64 %151
  %153 = load ptr, ptr %152, align 8, !tbaa !7
  %154 = load i32, ptr %9, align 4, !tbaa !3
  %155 = sext i32 %154 to i64
  %156 = getelementptr inbounds double, ptr %153, i64 %155
  store double %146, ptr %156, align 8, !tbaa !15
  br label %157

157:                                              ; preds = %139
  %158 = load i32, ptr %9, align 4, !tbaa !3
  %159 = add nsw i32 %158, 1
  store i32 %159, ptr %9, align 4, !tbaa !3
  br label %135

160:                                              ; preds = %135
  br label %161

161:                                              ; preds = %160
  %162 = load i32, ptr %8, align 4, !tbaa !3
  %163 = add nsw i32 %162, 1
  store i32 %163, ptr %8, align 4, !tbaa !3
  br label %115

164:                                              ; preds = %115
  store i32 0, ptr %9, align 4, !tbaa !3
  br label %165

165:                                              ; preds = %196, %164
  %166 = load i32, ptr %9, align 4, !tbaa !3
  %167 = load ptr, ptr %5, align 8, !tbaa !10
  %168 = getelementptr inbounds nuw %struct.ARKodeSPRKTableMem, ptr %167, i32 0, i32 1
  %169 = load i32, ptr %168, align 4, !tbaa !12
  %170 = icmp slt i32 %166, %169
  br i1 %170, label %171, label %199

171:                                              ; preds = %165
  store i32 0, ptr %8, align 4, !tbaa !3
  br label %172

172:                                              ; preds = %192, %171
  %173 = load i32, ptr %8, align 4, !tbaa !3
  %174 = load i32, ptr %9, align 4, !tbaa !3
  %175 = icmp slt i32 %173, %174
  br i1 %175, label %176, label %195

176:                                              ; preds = %172
  %177 = load ptr, ptr %5, align 8, !tbaa !10
  %178 = getelementptr inbounds nuw %struct.ARKodeSPRKTableMem, ptr %177, i32 0, i32 2
  %179 = load ptr, ptr %178, align 8, !tbaa !17
  %180 = load i32, ptr %8, align 4, !tbaa !3
  %181 = sext i32 %180 to i64
  %182 = getelementptr inbounds double, ptr %179, i64 %181
  %183 = load double, ptr %182, align 8, !tbaa !15
  %184 = load ptr, ptr %10, align 8, !tbaa !27
  %185 = getelementptr inbounds nuw %struct.ARKodeButcherTableMem, ptr %184, i32 0, i32 4
  %186 = load ptr, ptr %185, align 8, !tbaa !35
  %187 = load i32, ptr %9, align 4, !tbaa !3
  %188 = sext i32 %187 to i64
  %189 = getelementptr inbounds double, ptr %186, i64 %188
  %190 = load double, ptr %189, align 8, !tbaa !15
  %191 = fadd double %190, %183
  store double %191, ptr %189, align 8, !tbaa !15
  br label %192

192:                                              ; preds = %176
  %193 = load i32, ptr %8, align 4, !tbaa !3
  %194 = add nsw i32 %193, 1
  store i32 %194, ptr %8, align 4, !tbaa !3
  br label %172

195:                                              ; preds = %172
  br label %196

196:                                              ; preds = %195
  %197 = load i32, ptr %9, align 4, !tbaa !3
  %198 = add nsw i32 %197, 1
  store i32 %198, ptr %9, align 4, !tbaa !3
  br label %165

199:                                              ; preds = %165
  %200 = load ptr, ptr %5, align 8, !tbaa !10
  %201 = getelementptr inbounds nuw %struct.ARKodeSPRKTableMem, ptr %200, i32 0, i32 0
  %202 = load i32, ptr %201, align 8, !tbaa !14
  %203 = load ptr, ptr %10, align 8, !tbaa !27
  %204 = getelementptr inbounds nuw %struct.ARKodeButcherTableMem, ptr %203, i32 0, i32 0
  store i32 %202, ptr %204, align 8, !tbaa !36
  %205 = load ptr, ptr %5, align 8, !tbaa !10
  %206 = getelementptr inbounds nuw %struct.ARKodeSPRKTableMem, ptr %205, i32 0, i32 0
  %207 = load i32, ptr %206, align 8, !tbaa !14
  %208 = load ptr, ptr %11, align 8, !tbaa !27
  %209 = getelementptr inbounds nuw %struct.ARKodeButcherTableMem, ptr %208, i32 0, i32 0
  store i32 %207, ptr %209, align 8, !tbaa !36
  %210 = load ptr, ptr %10, align 8, !tbaa !27
  %211 = getelementptr inbounds nuw %struct.ARKodeButcherTableMem, ptr %210, i32 0, i32 1
  store i32 0, ptr %211, align 4, !tbaa !37
  %212 = load ptr, ptr %11, align 8, !tbaa !27
  %213 = getelementptr inbounds nuw %struct.ARKodeButcherTableMem, ptr %212, i32 0, i32 1
  store i32 0, ptr %213, align 4, !tbaa !37
  br label %214

214:                                              ; preds = %199
  %215 = load i32, ptr %8, align 4, !tbaa !3
  %216 = add nsw i32 %215, 1
  store i32 %216, ptr %8, align 4, !tbaa !3
  br label %34

217:                                              ; preds = %34
  %218 = load ptr, ptr %10, align 8, !tbaa !27
  %219 = load ptr, ptr %6, align 8, !tbaa !29
  store ptr %218, ptr %219, align 8, !tbaa !27
  %220 = load ptr, ptr %11, align 8, !tbaa !27
  %221 = load ptr, ptr %7, align 8, !tbaa !29
  store ptr %220, ptr %221, align 8, !tbaa !27
  store i32 0, ptr %4, align 4
  store i32 1, ptr %12, align 4
  br label %222

222:                                              ; preds = %217, %32, %19
  call void @llvm.lifetime.end.p0(i64 8, ptr %11) #8
  call void @llvm.lifetime.end.p0(i64 8, ptr %10) #8
  call void @llvm.lifetime.end.p0(i64 4, ptr %9) #8
  call void @llvm.lifetime.end.p0(i64 4, ptr %8) #8
  %223 = load i32, ptr %4, align 4
  ret i32 %223
}