; Function Attrs: nounwind uwtable
define range(i32 -20, 1) i32 @ARKodeSPRKTable_ToButcher(ptr noundef readonly captures(none) %0, ptr noundef writeonly captures(none) %1, ptr noundef writeonly captures(none) %2) local_unnamed_addr #5 {
  %4 = getelementptr inbounds nuw i8, ptr %0, i64 4
  %5 = load i32, ptr %4, align 4, !tbaa !11
  %6 = tail call ptr @ARKodeButcherTable_Alloc(i32 noundef %5, i32 noundef 0) #14
  %.not = icmp eq ptr %6, null
  br i1 %.not, label %70, label %7

7:                                                ; preds = %3
  %8 = load i32, ptr %4, align 4, !tbaa !11
  %9 = tail call ptr @ARKodeButcherTable_Alloc(i32 noundef %8, i32 noundef 0) #14
  %.not73 = icmp eq ptr %9, null
  br i1 %.not73, label %28, label %.preheader80

.preheader80:                                     ; preds = %7
  %10 = load i32, ptr %4, align 4, !tbaa !11
  %11 = icmp sgt i32 %10, 0
  br i1 %11, label %.lr.ph98, label %._crit_edge99

.lr.ph98:                                         ; preds = %.preheader80
  %12 = getelementptr inbounds nuw i8, ptr %0, i64 16
  %13 = load ptr, ptr %12, align 8, !tbaa !3
  %14 = getelementptr inbounds nuw i8, ptr %9, i64 32
  %15 = load ptr, ptr %14, align 8, !tbaa !20
  %16 = getelementptr inbounds nuw i8, ptr %9, i64 16
  %17 = getelementptr inbounds nuw i8, ptr %9, i64 24
  %18 = getelementptr inbounds nuw i8, ptr %0, i64 8
  %19 = getelementptr inbounds nuw i8, ptr %6, i64 32
  %20 = getelementptr inbounds nuw i8, ptr %6, i64 16
  %21 = getelementptr inbounds nuw i8, ptr %6, i64 24
  %22 = load i32, ptr %0, align 8, !tbaa !12
  %23 = getelementptr inbounds nuw i8, ptr %6, i64 4
  %24 = getelementptr inbounds nuw i8, ptr %9, i64 4
  %25 = load ptr, ptr %17, align 8, !tbaa !23
  %wide.trip.count117 = zext nneg i32 %10 to i64
  %26 = load ptr, ptr %18, align 8, !tbaa !10
  %27 = load ptr, ptr %19, align 8, !tbaa !20
  %wide.trip.count127 = zext nneg i32 %10 to i64
  %wide.trip.count137 = zext nneg i32 %10 to i64
  br label %29

28:                                               ; preds = %7
  tail call void @ARKodeButcherTable_Free(ptr noundef nonnull %6) #14
  br label %70

29:                                               ; preds = %.lr.ph98, %._crit_edge95
  %.06697 = phi i32 [ 0, %.lr.ph98 ], [ %.4.lcssa, %._crit_edge95 ]
  %30 = sext i32 %.06697 to i64
  %31 = getelementptr inbounds double, ptr %13, i64 %30
  %32 = load double, ptr %31, align 8, !tbaa !13
  %33 = getelementptr inbounds double, ptr %15, i64 %30
  store double %32, ptr %33, align 8, !tbaa !13
  %.not7481 = icmp slt i32 %.06697, 0
  br i1 %.not7481, label %.preheader76.preheader, label %.lr.ph

.lr.ph:                                           ; preds = %29
  %34 = load ptr, ptr %16, align 8, !tbaa !24
  %35 = getelementptr inbounds nuw ptr, ptr %34, i64 %30
  %36 = load ptr, ptr %35, align 8, !tbaa !25
  %37 = add nuw i32 %.06697, 1
  %wide.trip.count = zext i32 %37 to i64
  br label %38

38:                                               ; preds = %.lr.ph, %38
  %indvars.iv = phi i64 [ 0, %.lr.ph ], [ %indvars.iv.next, %38 ]
  %39 = getelementptr inbounds nuw double, ptr %13, i64 %indvars.iv
  %40 = load double, ptr %39, align 8, !tbaa !13
  %41 = getelementptr inbounds nuw double, ptr %36, i64 %indvars.iv
  store double %40, ptr %41, align 8, !tbaa !13
  %indvars.iv.next = add nuw nsw i64 %indvars.iv, 1
  %exitcond.not = icmp eq i64 %indvars.iv.next, %wide.trip.count
  br i1 %exitcond.not, label %.preheader76.preheader, label %38

.preheader76.preheader:                           ; preds = %38, %29
  br label %.preheader76

.preheader76:                                     ; preds = %.preheader76.preheader, %48
  %indvars.iv112 = phi i64 [ %indvars.iv.next113, %48 ], [ 0, %.preheader76.preheader ]
  %indvars.iv110 = phi i64 [ %indvars.iv.next111, %48 ], [ 1, %.preheader76.preheader ]
  %42 = getelementptr inbounds nuw double, ptr %25, i64 %indvars.iv112
  %.promoted = load double, ptr %42, align 8, !tbaa !13
  br label %43

43:                                               ; preds = %.preheader76, %43
  %indvars.iv103 = phi i64 [ 0, %.preheader76 ], [ %indvars.iv.next104, %43 ]
  %44 = phi double [ %.promoted, %.preheader76 ], [ %47, %43 ]
  %45 = getelementptr inbounds nuw double, ptr %13, i64 %indvars.iv103
  %46 = load double, ptr %45, align 8, !tbaa !13
  %47 = fadd double %46, %44
  store double %47, ptr %42, align 8, !tbaa !13
  %indvars.iv.next104 = add nuw nsw i64 %indvars.iv103, 1
  %exitcond109.not = icmp eq i64 %indvars.iv.next104, %indvars.iv110
  br i1 %exitcond109.not, label %48, label %43

48:                                               ; preds = %43
  %indvars.iv.next113 = add nuw nsw i64 %indvars.iv112, 1
  %indvars.iv.next111 = add nuw nsw i64 %indvars.iv110, 1
  %exitcond118.not = icmp eq i64 %indvars.iv.next113, %wide.trip.count117
  br i1 %exitcond118.not, label %.lr.ph88, label %.preheader76

.lr.ph88:                                         ; preds = %48, %._crit_edge
  %indvars.iv124 = phi i64 [ %indvars.iv.next125, %._crit_edge ], [ 0, %48 ]
  %49 = getelementptr inbounds nuw double, ptr %26, i64 %indvars.iv124
  %50 = load double, ptr %49, align 8, !tbaa !13
  %51 = getelementptr inbounds nuw double, ptr %27, i64 %indvars.iv124
  store double %50, ptr %51, align 8, !tbaa !13
  %.not100 = icmp eq i64 %indvars.iv124, 0
  br i1 %.not100, label %._crit_edge, label %.lr.ph86

.lr.ph86:                                         ; preds = %.lr.ph88
  %52 = load ptr, ptr %20, align 8, !tbaa !24
  %53 = getelementptr inbounds nuw ptr, ptr %52, i64 %indvars.iv124
  %54 = load ptr, ptr %53, align 8, !tbaa !25
  br label %55

55:                                               ; preds = %.lr.ph86, %55
  %indvars.iv119 = phi i64 [ 0, %.lr.ph86 ], [ %indvars.iv.next120, %55 ]
  %56 = getelementptr inbounds nuw double, ptr %26, i64 %indvars.iv119
  %57 = load double, ptr %56, align 8, !tbaa !13
  %58 = getelementptr inbounds nuw double, ptr %54, i64 %indvars.iv119
  store double %57, ptr %58, align 8, !tbaa !13
  %indvars.iv.next120 = add nuw nsw i64 %indvars.iv119, 1
  %exitcond123.not = icmp eq i64 %indvars.iv.next120, %indvars.iv124
  br i1 %exitcond123.not, label %._crit_edge, label %55

._crit_edge:                                      ; preds = %55, %.lr.ph88
  %indvars.iv.next125 = add nuw nsw i64 %indvars.iv124, 1
  %exitcond128.not = icmp eq i64 %indvars.iv.next125, %wide.trip.count127
  br i1 %exitcond128.not, label %.preheader, label %.lr.ph88

.preheader:                                       ; preds = %._crit_edge, %._crit_edge91
  %indvars.iv134 = phi i64 [ %indvars.iv.next135, %._crit_edge91 ], [ 0, %._crit_edge ]
  %.not101 = icmp eq i64 %indvars.iv134, 0
  br i1 %.not101, label %._crit_edge91, label %.lr.ph90

.lr.ph90:                                         ; preds = %.preheader
  %59 = load ptr, ptr %18, align 8, !tbaa !10
  %60 = load ptr, ptr %21, align 8, !tbaa !23
  %61 = getelementptr inbounds nuw double, ptr %60, i64 %indvars.iv134
  %.promoted93 = load double, ptr %61, align 8, !tbaa !13
  br label %62

62:                                               ; preds = %.lr.ph90, %62
  %indvars.iv129 = phi i64 [ 0, %.lr.ph90 ], [ %indvars.iv.next130, %62 ]
  %63 = phi double [ %.promoted93, %.lr.ph90 ], [ %66, %62 ]
  %64 = getelementptr inbounds nuw double, ptr %59, i64 %indvars.iv129
  %65 = load double, ptr %64, align 8, !tbaa !13
  %66 = fadd double %65, %63
  store double %66, ptr %61, align 8, !tbaa !13
  %indvars.iv.next130 = add nuw nsw i64 %indvars.iv129, 1
  %exitcond133.not = icmp eq i64 %indvars.iv.next130, %indvars.iv134
  br i1 %exitcond133.not, label %._crit_edge91.loopexit, label %62

._crit_edge91.loopexit:                           ; preds = %62
  %67 = trunc nuw nsw i64 %indvars.iv134 to i32
  %68 = add nuw nsw i32 %67, 1
  br label %._crit_edge91

._crit_edge91:                                    ; preds = %._crit_edge91.loopexit, %.preheader
  %.4.lcssa = phi i32 [ 1, %.preheader ], [ %68, %._crit_edge91.loopexit ]
  %indvars.iv.next135 = add nuw nsw i64 %indvars.iv134, 1
  %exitcond138.not = icmp eq i64 %indvars.iv.next135, %wide.trip.count137
  br i1 %exitcond138.not, label %._crit_edge95, label %.preheader

._crit_edge95:                                    ; preds = %._crit_edge91
  store i32 %22, ptr %6, align 8, !tbaa !26
  store i32 %22, ptr %9, align 8, !tbaa !26
  store i32 0, ptr %23, align 4, !tbaa !27
  store i32 0, ptr %24, align 4, !tbaa !27
  %69 = icmp slt i32 %.4.lcssa, %10
  br i1 %69, label %29, label %._crit_edge99

._crit_edge99:                                    ; preds = %._crit_edge95, %.preheader80
  store ptr %6, ptr %1, align 8, !tbaa !18
  store ptr %9, ptr %2, align 8, !tbaa !18
  br label %70

70:                                               ; preds = %3, %._crit_edge99, %28
  %.070 = phi i32 [ 0, %._crit_edge99 ], [ -20, %28 ], [ -20, %3 ]
  ret i32 %.070
}